Certificate:
    Data:
        Version: 3 (0x2)
        Serial Number:
            d3:93:dc:02:dc:f1:18:9c
        Signature Algorithm: sha1WithRSAEncryption
        Issuer: C=US, ST=California, L=San-Francisco, O=Nextdoor.com, Inc., OU=Kingpin Integration Tests
        Validity
            Not Before: Feb  4 23:16:05 2016 GMT
            Not After : Feb  1 23:16:05 2026 GMT
        Subject: C=US, ST=California, L=San-Francisco, O=Nextdoor.com, Inc., OU=Kingpin Integration Tests
        Subject Public Key Info:
            Public Key Algorithm: rsaEncryption
            RSA Public Key: (2048 bit)
                Modulus (2048 bit):
                    00:b4:b5:d8:39:3e:06:a9:16:e1:f5:73:11:35:69:
                    1b:81:f6:78:e9:8a:33:34:62:28:36:76:81:13:bf:
                    a4:8c:d8:b2:3c:bb:38:8a:51:d0:ac:1d:3b:33:0b:
                    d5:0a:74:41:3d:e6:a0:eb:f3:d1:08:b8:50:e6:7c:
                    a4:91:14:ce:0c:b6:f6:98:18:79:32:d3:38:3d:52:
                    71:f3:14:b8:7b:65:3c:fa:56:ca:02:55:71:46:4c:
                    a4:33:4b:e1:17:ad:31:4d:0f:c4:4b:45:93:90:3d:
                    11:18:58:39:0d:37:14:ac:17:2b:e5:06:b9:33:e6:
                    2e:d8:45:b1:b8:e0:6c:ee:44:f2:bf:98:1c:cb:0c:
                    62:37:25:1e:04:26:69:63:9b:df:4c:d8:34:c5:25:
                    b0:f6:1e:fa:e7:c7:17:7b:43:7e:e5:a3:78:88:74:
                    ac:ae:76:e3:53:81:43:75:dc:cd:5a:d6:16:b7:cf:
                    fe:d3:5f:e4:fd:aa:11:fe:87:da:19:fd:14:4c:d9:
                    3d:7a:de:b2:d3:43:7a:a3:7f:98:cf:20:e5:c5:c1:
                    1c:7d:72:6c:40:d8:f4:aa:06:92:9a:56:c4:cf:c2:
                    82:b3:7a:25:0e:66:fa:a1:09:e6:37:3d:ad:68:42:
                    18:6f:22:8d:1e:91:be:17:58:cc:02:42:f5:32:b1:
                    3e:db
                Exponent: 65537 (0x10001)
        X509v3 extensions:
            X509v3 Subject Key Identifier:
                1B:AB:32:CE:F1:FC:38:7C:8A:6D:B1:D4:28:91:DB:EE:62:A6:F2:F9
            X509v3 Authority Key Identifier:
                keyid:1B:AB:32:CE:F1:FC:38:7C:8A:6D:B1:D4:28:91:DB:EE:62:A6:F2:F9
                DirName:/C=US/ST=California/L=San-Francisco/O=Nextdoor.com, Inc./OU=Kingpin Integration Tests
                serial:D3:93:DC:02:DC:F1:18:9C

            X509v3 Basic Constraints:
                CA:TRUE
    Signature Algorithm: sha1WithRSAEncryption
        42:6f:d2:ad:11:9d:ab:a3:11:6a:63:2c:ed:2c:88:93:fd:36:
        1c:2d:5c:6f:7c:0a:19:89:d2:d9:8f:81:32:8a:28:3d:10:dc:
        a8:1a:fd:f9:e4:33:2f:45:c3:06:3d:6c:3c:dc:a7:c0:d8:d0:
        47:f6:a5:da:51:cd:d4:7f:30:56:0a:c6:4b:6f:88:62:67:da:
        37:ef:61:e3:8c:88:eb:e0:2b:e4:d5:0b:fd:4a:bc:81:eb:7b:
        1e:67:cc:c3:ad:98:54:b4:4b:f9:c1:ad:a7:83:2b:0f:cf:7b:
        d6:1e:ae:ed:ac:75:36:e5:fb:1d:89:fe:5c:0f:18:90:54:69:
        58:1e:1b:83:68:30:b8:6a:f7:c4:cc:07:47:e4:84:df:f7:a2:
        f3:4d:ad:a6:03:37:02:04:42:89:c9:c6:3f:5d:7f:07:51:4c:
        d7:00:c0:1b:1b:83:ae:43:ea:ef:ff:37:c0:34:9f:b7:7c:12:
        24:72:be:c9:c1:83:02:3e:08:82:1a:85:f6:7b:df:39:0a:69:
        bd:1f:f0:25:9a:88:cb:63:c3:21:f0:05:42:ff:a6:3e:29:af:
        16:ff:e1:74:b5:91:57:f2:83:40:ab:03:35:62:01:20:70:a8:
        27:9b:9d:87:cf:fc:71:76:1f:c7:0c:cb:98:fc:f2:a6:0e:d2:
        65:ca:ca:9c
-----BEGIN CERTIFICATE-----
MIIEWjCCA0KgAwIBAgIJANOT3ALc8RicMA0GCSqGSIb3DQEBBQUAMHsxCzAJBgNV
BAYTAlVTMRMwEQYDVQQIEwpDYWxpZm9ybmlhMRYwFAYDVQQHEw1TYW4tRnJhbmNp
c2NvMRswGQYDVQQKExJOZXh0ZG9vci5jb20sIEluYy4xIjAgBgNVBAsTGUtpbmdw
aW4gSW50ZWdyYXRpb24gVGVzdHMwHhcNMTYwMjA0MjMxNjA1WhcNMjYwMjAxMjMx
NjA1WjB7MQswCQYDVQQGEwJVUzETMBEGA1UECBMKQ2FsaWZvcm5pYTEWMBQGA1UE
BxMNU2FuLUZyYW5jaXNjbzEbMBkGA1UEChMSTmV4dGRvb3IuY29tLCBJbmMuMSIw
IAYDVQQLExlLaW5ncGluIEludGVncmF0aW9uIFRlc3RzMIIBIjANBgkqhkiG9w0B
AQEFAAOCAQ8AMIIBCgKCAQEAtLXYOT4GqRbh9XMRNWkbgfZ46YozNGIoNnaBE7+k
jNiyPLs4ilHQrB07MwvVCnRBPeag6/PRCLhQ5nykkRTODLb2mBh5MtM4PVJx8xS4
e2U8+lbKAlVxRkykM0vhF60xTQ/ES0WTkD0RGFg5DTcUrBcr5Qa5M+Yu2EWxuOBs
7kTyv5gcywxiNyUeBCZpY5vfTNg0xSWw9h7658cXe0N+5aN4iHSsrnbjU4FDddzN
WtYWt8/+01/k/aoR/ofaGf0UTNk9et6y00N6o3+YzyDlxcEcfXJsQNj0qgaSmlbE
z8KCs3olDmb6oQnmNz2taEIYbyKNHpG+F1jMAkL1MrE+2wIDAQABo4HgMIHdMB0G
A1UdDgQWBBQbqzLO8fw4fIptsdQokdvuYqby+TCBrQYDVR0jBIGlMIGigBQbqzLO
8fw4fIptsdQokdvuYqby+aF/pH0wezELMAkGA1UEBhMCVVMxEzARBgNVBAgTCkNh
bGlmb3JuaWExFjAUBgNVBAcTDVNhbi1GcmFuY2lzY28xGzAZBgNVBAoTEk5leHRk
b29yLmNvbSwgSW5jLjEiMCAGA1UECxMZS2luZ3BpbiBJbnRlZ3JhdGlvbiBUZXN0
c4IJANOT3ALc8RicMAwGA1UdEwQFMAMBAf8wDQYJKoZIhvcNAQEFBQADggEBAEJv
0q0RnaujEWpjLO0siJP9NhwtXG98ChmJ0tmPgTKKKD0Q3Kga/fnkMy9FwwY9bDzc
p8DY0Ef2pdpRzdR/MFYKxktviGJn2jfvYeOMiOvgK+TVC/1KvIHrex5nzMOtmFS0
S/nBraeDKw/Pe9Yeru2sdTbl+x2J/lwPGJBUaVgeG4NoMLhq98TMB0fkhN/3ovNN
raYDNwIEQonJxj9dfwdRTNcAwBsbg65D6u//N8A0n7d8EiRyvsnBgwI+CIIahfZ7
3zkKab0f8CWaiMtjwyHwBUL/pj4prxb/4XS1kVfyg0CrAzViASBwqCebnYfP/HF2
H8cMy5j88qYO0mXKypw=
-----END CERTIFICATE-----
